target datalayout = "e-m:e-p270:32:32-p271:32:32-p272:64:64-i64:64-i128:128-f80:128-n8:16:32:64-S128"
target triple = "x86_64-pc-linux-gnu"

%struct.jpeg_compress_struct = type { ptr, ptr, ptr, ptr, i32, i32, ptr, i32, i32, i32, i32, double, i32, i32, i32, ptr, [4 x ptr], [4 x ptr], [4 x ptr], [16 x i8], [16 x i8], [16 x i8], i32, ptr, i32, i32, i32, i32, i32, i32, i32, i32, i32, i8, i8, i8, i16, i16, i32, i32, i32, i32, i32, i32, i32, [4 x ptr], i32, i32, i32, [10 x i32], i32, i32, i32, i32, ptr, ptr, ptr, ptr, ptr, ptr, ptr, ptr, ptr, ptr, i32 }
%struct.phuff_entropy_encoder = type { %struct.jpeg_entropy_encoder, ptr, ptr, i32, ptr, i64, i64, i32, ptr, [4 x i32], i32, i32, i32, ptr, i32, i32, [4 x ptr], [4 x ptr] }
%struct.jpeg_entropy_encoder = type { ptr, ptr, ptr, ptr }
%struct.jpeg_error_mgr = type { ptr, ptr, ptr, ptr, ptr, i32, %union.anon, i32, i64, ptr, i32, ptr, i32, i32 }
%union.anon = type { [8 x i32], [48 x i8] }
%struct.c_derived_tbl = type { [256 x i32], [256 x i8] }

@jpeg_nbits_table = external constant [65536 x i8], align 16

; Function Attrs: nounwind uwtable
define internal void @emit_buffered_bits(ptr noundef %0, ptr noundef %1, i32 noundef %2) #0 {
  %4 = alloca ptr, align 8
  %5 = alloca ptr, align 8
  %6 = alloca i32, align 4
  store ptr %0, ptr %4, align 8, !tbaa !29
  store ptr %1, ptr %5, align 8, !tbaa !91
  store i32 %2, ptr %6, align 4, !tbaa !35
  %7 = load ptr, ptr %4, align 8, !tbaa !29
  %8 = getelementptr inbounds nuw %struct.phuff_entropy_encoder, ptr %7, i32 0, i32 3
  %9 = load i32, ptr %8, align 8, !tbaa !42
  %10 = icmp ne i32 %9, 0
  br i1 %10, label %11, label %12

11:                                               ; preds = %3
  br label %25

12:                                               ; preds = %3
  br label %13

13:                                               ; preds = %16, %12
  %14 = load i32, ptr %6, align 4, !tbaa !35
  %15 = icmp ugt i32 %14, 0
  br i1 %15, label %16, label %25

16:                                               ; preds = %13
  %17 = load ptr, ptr %4, align 8, !tbaa !29
  %18 = load ptr, ptr %5, align 8, !tbaa !91
  %19 = load i8, ptr %18, align 1, !tbaa !58
  %20 = sext i8 %19 to i32
  call void @emit_bits(ptr noundef %17, i32 noundef %20, i32 noundef 1)
  %21 = load ptr, ptr %5, align 8, !tbaa !91
  %22 = getelementptr inbounds nuw i8, ptr %21, i32 1
  store ptr %22, ptr %5, align 8, !tbaa !91
  %23 = load i32, ptr %6, align 4, !tbaa !35
  %24 = add i32 %23, -1
  store i32 %24, ptr %6, align 4, !tbaa !35
  br label %13, !llvm.loop !100

25:                                               ; preds = %11, %13
  ret void
}

; Function Attrs: nounwind uwtable
define internal void @emit_symbol(ptr noundef %0, i32 noundef %1, i32 noundef %2) #0 {
  %4 = alloca ptr, align 8
  %5 = alloca i32, align 4
  %6 = alloca i32, align 4
  %7 = alloca ptr, align 8
  store ptr %0, ptr %4, align 8, !tbaa !29
  store i32 %1, ptr %5, align 4, !tbaa !35
  store i32 %2, ptr %6, align 4, !tbaa !35
  %8 = load ptr, ptr %4, align 8, !tbaa !29
  %9 = getelementptr inbounds nuw %struct.phuff_entropy_encoder, ptr %8, i32 0, i32 3
  %10 = load i32, ptr %9, align 8, !tbaa !42
  %11 = icmp ne i32 %10, 0
  br i1 %11, label %12, label %24

12:                                               ; preds = %3
  %13 = load ptr, ptr %4, align 8, !tbaa !29
  %14 = getelementptr inbounds nuw %struct.phuff_entropy_encoder, ptr %13, i32 0, i32 17
  %15 = load i32, ptr %5, align 4, !tbaa !35
  %16 = sext i32 %15 to i64
  %17 = getelementptr inbounds [4 x ptr], ptr %14, i64 0, i64 %16
  %18 = load ptr, ptr %17, align 8, !tbaa !36
  %19 = load i32, ptr %6, align 4, !tbaa !35
  %20 = sext i32 %19 to i64
  %21 = getelementptr inbounds i64, ptr %18, i64 %20
  %22 = load i64, ptr %21, align 8, !tbaa !84
  %23 = add nsw i64 %22, 1
  store i64 %23, ptr %21, align 8, !tbaa !84
  br label %45

24:                                               ; preds = %3
  call void @llvm.lifetime.start.p0(i64 8, ptr %7) #6
  %25 = load ptr, ptr %4, align 8, !tbaa !29
  %26 = getelementptr inbounds nuw %struct.phuff_entropy_encoder, ptr %25, i32 0, i32 16
  %27 = load i32, ptr %5, align 4, !tbaa !35
  %28 = sext i32 %27 to i64
  %29 = getelementptr inbounds [4 x ptr], ptr %26, i64 0, i64 %28
  %30 = load ptr, ptr %29, align 8, !tbaa !29
  store ptr %30, ptr %7, align 8, !tbaa !29
  %31 = load ptr, ptr %4, align 8, !tbaa !29
  %32 = load ptr, ptr %7, align 8, !tbaa !29
  %33 = getelementptr inbounds nuw %struct.c_derived_tbl, ptr %32, i32 0, i32 0
  %34 = load i32, ptr %6, align 4, !tbaa !35
  %35 = sext i32 %34 to i64
  %36 = getelementptr inbounds [256 x i32], ptr %33, i64 0, i64 %35
  %37 = load i32, ptr %36, align 4, !tbaa !35
  %38 = load ptr, ptr %7, align 8, !tbaa !29
  %39 = getelementptr inbounds nuw %struct.c_derived_tbl, ptr %38, i32 0, i32 1
  %40 = load i32, ptr %6, align 4, !tbaa !35
  %41 = sext i32 %40 to i64
  %42 = getelementptr inbounds [256 x i8], ptr %39, i64 0, i64 %41
  %43 = load i8, ptr %42, align 1, !tbaa !58
  %44 = sext i8 %43 to i32
  call void @emit_bits(ptr noundef %31, i32 noundef %37, i32 noundef %44)
  call void @llvm.lifetime.end.p0(i64 8, ptr %7) #6
  br label %45

45:                                               ; preds = %24, %12
  ret void
}

; Function Attrs: nounwind uwtable
define internal void @emit_eobrun(ptr noundef %0) #0 {
  %2 = alloca ptr, align 8
  %3 = alloca i32, align 4
  %4 = alloca i32, align 4
  store ptr %0, ptr %2, align 8, !tbaa !29
  call void @llvm.lifetime.start.p0(i64 4, ptr %3) #6
  call void @llvm.lifetime.start.p0(i64 4, ptr %4) #6
  %5 = load ptr, ptr %2, align 8, !tbaa !29
  %6 = getelementptr inbounds nuw %struct.phuff_entropy_encoder, ptr %5, i32 0, i32 11
  %7 = load i32, ptr %6, align 4, !tbaa !61
  %8 = icmp ugt i32 %7, 0
  br i1 %8, label %9, label %65

9:                                                ; preds = %1
  %10 = load ptr, ptr %2, align 8, !tbaa !29
  %11 = getelementptr inbounds nuw %struct.phuff_entropy_encoder, ptr %10, i32 0, i32 11
  %12 = load i32, ptr %11, align 4, !tbaa !61
  store i32 %12, ptr %3, align 4, !tbaa !35
  %13 = load i32, ptr %3, align 4, !tbaa !35
  %14 = sext i32 %13 to i64
  %15 = getelementptr inbounds [65536 x i8], ptr @jpeg_nbits_table, i64 0, i64 %14
  %16 = load i8, ptr %15, align 1, !tbaa !58
  %17 = zext i8 %16 to i32
  %18 = sub nsw i32 %17, 1
  store i32 %18, ptr %4, align 4, !tbaa !35
  %19 = load i32, ptr %4, align 4, !tbaa !35
  %20 = icmp sgt i32 %19, 14
  br i1 %20, label %21, label %38

21:                                               ; preds = %9
  %22 = load ptr, ptr %2, align 8, !tbaa !29
  %23 = getelementptr inbounds nuw %struct.phuff_entropy_encoder, ptr %22, i32 0, i32 8
  %24 = load ptr, ptr %23, align 8, !tbaa !41
  %25 = getelementptr inbounds nuw %struct.jpeg_compress_struct, ptr %24, i32 0, i32 0
  %26 = load ptr, ptr %25, align 8, !tbaa !54
  %27 = getelementptr inbounds nuw %struct.jpeg_error_mgr, ptr %26, i32 0, i32 5
  store i32 40, ptr %27, align 8, !tbaa !55
  %28 = load ptr, ptr %2, align 8, !tbaa !29
  %29 = getelementptr inbounds nuw %struct.phuff_entropy_encoder, ptr %28, i32 0, i32 8
  %30 = load ptr, ptr %29, align 8, !tbaa !41
  %31 = getelementptr inbounds nuw %struct.jpeg_compress_struct, ptr %30, i32 0, i32 0
  %32 = load ptr, ptr %31, align 8, !tbaa !54
  %33 = getelementptr inbounds nuw %struct.jpeg_error_mgr, ptr %32, i32 0, i32 0
  %34 = load ptr, ptr %33, align 8, !tbaa !59
  %35 = load ptr, ptr %2, align 8, !tbaa !29
  %36 = getelementptr inbounds nuw %struct.phuff_entropy_encoder, ptr %35, i32 0, i32 8
  %37 = load ptr, ptr %36, align 8, !tbaa !41
  call void %34(ptr noundef %37)
  br label %38

38:                                               ; preds = %21, %9
  %39 = load ptr, ptr %2, align 8, !tbaa !29
  %40 = load ptr, ptr %2, align 8, !tbaa !29
  %41 = getelementptr inbounds nuw %struct.phuff_entropy_encoder, ptr %40, i32 0, i32 10
  %42 = load i32, ptr %41, align 8, !tbaa !53
  %43 = load i32, ptr %4, align 4, !tbaa !35
  %44 = shl i32 %43, 4
  call void @emit_symbol(ptr noundef %39, i32 noundef %42, i32 noundef %44)
  %45 = load i32, ptr %4, align 4, !tbaa !35
  %46 = icmp ne i32 %45, 0
  br i1 %46, label %47, label %53

47:                                               ; preds = %38
  %48 = load ptr, ptr %2, align 8, !tbaa !29
  %49 = load ptr, ptr %2, align 8, !tbaa !29
  %50 = getelementptr inbounds nuw %struct.phuff_entropy_encoder, ptr %49, i32 0, i32 11
  %51 = load i32, ptr %50, align 4, !tbaa !61
  %52 = load i32, ptr %4, align 4, !tbaa !35
  call void @emit_bits(ptr noundef %48, i32 noundef %51, i32 noundef %52)
  br label %53

53:                                               ; preds = %47, %38
  %54 = load ptr, ptr %2, align 8, !tbaa !29
  %55 = getelementptr inbounds nuw %struct.phuff_entropy_encoder, ptr %54, i32 0, i32 11
  store i32 0, ptr %55, align 4, !tbaa !61
  %56 = load ptr, ptr %2, align 8, !tbaa !29
  %57 = load ptr, ptr %2, align 8, !tbaa !29
  %58 = getelementptr inbounds nuw %struct.phuff_entropy_encoder, ptr %57, i32 0, i32 13
  %59 = load ptr, ptr %58, align 8, !tbaa !40
  %60 = load ptr, ptr %2, align 8, !tbaa !29
  %61 = getelementptr inbounds nuw %struct.phuff_entropy_encoder, ptr %60, i32 0, i32 12
  %62 = load i32, ptr %61, align 8, !tbaa !62
  call void @emit_buffered_bits(ptr noundef %56, ptr noundef %59, i32 noundef %62)
  %63 = load ptr, ptr %2, align 8, !tbaa !29
  %64 = getelementptr inbounds nuw %struct.phuff_entropy_encoder, ptr %63, i32 0, i32 12
  store i32 0, ptr %64, align 8, !tbaa !62
  br label %65

65:                                               ; preds = %53, %1
  call void @llvm.lifetime.end.p0(i64 4, ptr %4) #6
  call void @llvm.lifetime.end.p0(i64 4, ptr %3) #6
  ret void
}