; Function Attrs: nounwind uwtable
define internal fastcc void @emit_eobrun(ptr noundef captures(none) %0) unnamed_addr #0 {
  %2 = getelementptr inbounds nuw i8, ptr %0, i64 116
  %3 = load i32, ptr %2, align 4, !tbaa !59
  %.not = icmp eq i32 %3, 0
  br i1 %.not, label %56, label %4

4:                                                ; preds = %1
  %5 = sext i32 %3 to i64
  %6 = getelementptr inbounds [65536 x i8], ptr @jpeg_nbits_table, i64 0, i64 %5
  %7 = load i8, ptr %6, align 1, !tbaa !55
  %8 = zext i8 %7 to i32
  %9 = add nsw i32 %8, -1
  %10 = icmp ugt i8 %7, 15
  br i1 %10, label %11, label %17

11:                                               ; preds = %4
  %12 = getelementptr inbounds nuw i8, ptr %0, i64 88
  %13 = load ptr, ptr %12, align 8, !tbaa !34
  %14 = load ptr, ptr %13, align 8, !tbaa !51
  %15 = getelementptr inbounds nuw i8, ptr %14, i64 40
  store i32 40, ptr %15, align 8, !tbaa !52
  %16 = load ptr, ptr %14, align 8, !tbaa !56
  tail call void %16(ptr noundef nonnull %13) #7
  br label %17

17:                                               ; preds = %11, %4
  %18 = getelementptr inbounds nuw i8, ptr %0, i64 112
  %19 = load i32, ptr %18, align 8, !tbaa !50
  %20 = shl nsw i32 %9, 4
  %21 = getelementptr inbounds nuw i8, ptr %0, i64 48
  %22 = load i32, ptr %21, align 8, !tbaa !35
  %.not.i = icmp eq i32 %22, 0
  %23 = sext i32 %19 to i64
  %24 = sext i32 %20 to i64
  br i1 %.not.i, label %32, label %25

25:                                               ; preds = %17
  %26 = getelementptr inbounds nuw i8, ptr %0, i64 176
  %27 = getelementptr inbounds [4 x ptr], ptr %26, i64 0, i64 %23
  %28 = load ptr, ptr %27, align 8, !tbaa !57
  %29 = getelementptr inbounds i64, ptr %28, i64 %24
  %30 = load i64, ptr %29, align 8, !tbaa !78
  %31 = add nsw i64 %30, 1
  store i64 %31, ptr %29, align 8, !tbaa !78
  br label %emit_symbol.exit

32:                                               ; preds = %17
  %33 = getelementptr inbounds nuw i8, ptr %0, i64 144
  %34 = getelementptr inbounds [4 x ptr], ptr %33, i64 0, i64 %23
  %35 = load ptr, ptr %34, align 8, !tbaa !43
  %36 = getelementptr inbounds [256 x i32], ptr %35, i64 0, i64 %24
  %37 = load i32, ptr %36, align 4, !tbaa !44
  %38 = getelementptr inbounds nuw i8, ptr %35, i64 1024
  %39 = getelementptr inbounds [256 x i8], ptr %38, i64 0, i64 %24
  %40 = load i8, ptr %39, align 1, !tbaa !55
  %41 = sext i8 %40 to i32
  tail call fastcc void @emit_bits(ptr noundef nonnull %0, i32 noundef %37, i32 noundef %41)
  br label %emit_symbol.exit

emit_symbol.exit:                                 ; preds = %25, %32
  %.not19 = icmp eq i32 %9, 0
  br i1 %.not19, label %44, label %42

42:                                               ; preds = %emit_symbol.exit
  %43 = load i32, ptr %2, align 4, !tbaa !59
  tail call fastcc void @emit_bits(ptr noundef nonnull %0, i32 noundef %43, i32 noundef %9)
  br label %44

44:                                               ; preds = %42, %emit_symbol.exit
  store i32 0, ptr %2, align 4, !tbaa !59
  %45 = getelementptr inbounds nuw i8, ptr %0, i64 120
  %46 = load i32, ptr %45, align 8, !tbaa !60
  %47 = load i32, ptr %21, align 8, !tbaa !35
  %48 = icmp eq i32 %47, 0
  %49 = icmp ne i32 %46, 0
  %or.cond.i = and i1 %49, %48
  br i1 %or.cond.i, label %.preheader.i.preheader, label %emit_buffered_bits.exit

.preheader.i.preheader:                           ; preds = %44
  %50 = getelementptr inbounds nuw i8, ptr %0, i64 128
  %51 = load ptr, ptr %50, align 8, !tbaa !33
  br label %.preheader.i

.preheader.i:                                     ; preds = %.preheader.i.preheader, %.preheader.i
  %.07.i = phi ptr [ %54, %.preheader.i ], [ %51, %.preheader.i.preheader ]
  %.0.i = phi i32 [ %55, %.preheader.i ], [ %46, %.preheader.i.preheader ]
  %52 = load i8, ptr %.07.i, align 1, !tbaa !55
  %53 = sext i8 %52 to i32
  tail call fastcc void @emit_bits(ptr noundef %0, i32 noundef %53, i32 noundef 1)
  %54 = getelementptr inbounds nuw i8, ptr %.07.i, i64 1
  %55 = add i32 %.0.i, -1
  %.old1.not.i = icmp eq i32 %55, 0
  br i1 %.old1.not.i, label %emit_buffered_bits.exit, label %.preheader.i

emit_buffered_bits.exit:                          ; preds = %.preheader.i, %44
  store i32 0, ptr %45, align 8, !tbaa !60
  br label %56

56:                                               ; preds = %emit_buffered_bits.exit, %1
  ret void
}